; Function Attrs: mustprogress uwtable
define void @_ZN3gmx21DensityFittingOptions28writeInternalParametersToKvtENS_25KeyValueTreeObjectBuilderE(ptr noundef nonnull align 8 dereferenceable(656) %0, ptr %1) local_unnamed_addr #0 align 2 personality ptr @__gxx_personality_v0 {
  %3 = alloca %"class.gmx::KeyValueTreeObjectBuilder", align 8
  %4 = alloca %"class.gmx::KeyValueTreeUniformArrayBuilder", align 8
  %5 = alloca %"class.std::__cxx11::basic_string", align 8
  %6 = alloca %"class.std::__cxx11::basic_string", align 8
  store ptr %1, ptr %3, align 8
  call void @_ZNSt7__cxx1112basic_stringIcSt11char_traitsIcESaIcEEC1ERKS4_(ptr noundef nonnull align 8 dereferenceable(32) %6, ptr noundef nonnull align 8 dereferenceable(32) @_ZN3gmx24DensityFittingModuleInfo5name_B5cxx11E)
  %7 = invoke noundef nonnull align 8 dereferenceable(32) ptr @_ZNSt7__cxx1112basic_stringIcSt11char_traitsIcESaIcEE6appendEPKc(ptr noundef nonnull align 8 dereferenceable(32) %6, ptr noundef nonnull @.str.1)
          to label %_ZStplIcSt11char_traitsIcESaIcEENSt7__cxx1112basic_stringIT_T0_T1_EERKS8_PKS5_.exit unwind label %8

common.resume:                                    ; preds = %20, %22, %8
  %common.resume.op = phi { ptr, i32 } [ %9, %8 ], [ %23, %22 ], [ %21, %20 ]
  call void @_ZNSt7__cxx1112basic_stringIcSt11char_traitsIcESaIcEED1Ev(ptr noundef nonnull align 8 dereferenceable(32) %6) #22
  resume { ptr, i32 } %common.resume.op

8:                                                ; preds = %2
  %9 = landingpad { ptr, i32 }
          cleanup
  br label %common.resume

_ZStplIcSt11char_traitsIcESaIcEENSt7__cxx1112basic_stringIT_T0_T1_EERKS8_PKS5_.exit: ; preds = %2
  %10 = getelementptr inbounds i8, ptr %0, i64 40
  %11 = invoke noundef nonnull align 8 dereferenceable(32) ptr @_ZNSt7__cxx1112basic_stringIcSt11char_traitsIcESaIcEE6appendERKS4_(ptr noundef nonnull align 8 dereferenceable(32) %6, ptr noundef nonnull align 8 dereferenceable(32) %10)
          to label %12 unwind label %20

12:                                               ; preds = %_ZStplIcSt11char_traitsIcESaIcEENSt7__cxx1112basic_stringIT_T0_T1_EERKS8_PKS5_.exit
  call void @_ZNSt7__cxx1112basic_stringIcSt11char_traitsIcESaIcEEC1EOS4_(ptr noundef nonnull align 8 dereferenceable(32) %5, ptr noundef nonnull align 8 dereferenceable(32) %11) #22
  %13 = invoke ptr @_ZN3gmx25KeyValueTreeObjectBuilder15addUniformArrayIlEENS_31KeyValueTreeUniformArrayBuilderIT_EERKNSt7__cxx1112basic_stringIcSt11char_traitsIcESaIcEEE(ptr noundef nonnull align 8 dereferenceable(8) %3, ptr noundef nonnull align 8 dereferenceable(32) %5)
          to label %14 unwind label %22

14:                                               ; preds = %12
  store ptr %13, ptr %4, align 8
  call void @_ZNSt7__cxx1112basic_stringIcSt11char_traitsIcESaIcEED1Ev(ptr noundef nonnull align 8 dereferenceable(32) %5) #22
  call void @_ZNSt7__cxx1112basic_stringIcSt11char_traitsIcESaIcEED1Ev(ptr noundef nonnull align 8 dereferenceable(32) %6) #22
  %15 = getelementptr inbounds i8, ptr %0, i64 528
  %16 = load ptr, ptr %15, align 8
  %17 = getelementptr inbounds i8, ptr %0, i64 536
  %18 = load ptr, ptr %17, align 8
  %.not10 = icmp eq ptr %16, %18
  br i1 %.not10, label %._crit_edge, label %.lr.ph

.lr.ph:                                           ; preds = %14, %.lr.ph
  %.sroa.07.011 = phi ptr [ %19, %.lr.ph ], [ %16, %14 ]
  call void @_ZN3gmx31KeyValueTreeUniformArrayBuilderIlE8addValueERKl(ptr noundef nonnull align 8 dereferenceable(8) %4, ptr noundef nonnull align 8 dereferenceable(8) %.sroa.07.011)
  %19 = getelementptr inbounds i8, ptr %.sroa.07.011, i64 8
  %.not = icmp eq ptr %19, %18
  br i1 %.not, label %._crit_edge, label %.lr.ph

20:                                               ; preds = %_ZStplIcSt11char_traitsIcESaIcEENSt7__cxx1112basic_stringIT_T0_T1_EERKS8_PKS5_.exit
  %21 = landingpad { ptr, i32 }
          cleanup
  br label %common.resume

22:                                               ; preds = %12
  %23 = landingpad { ptr, i32 }
          cleanup
  call void @_ZNSt7__cxx1112basic_stringIcSt11char_traitsIcESaIcEED1Ev(ptr noundef nonnull align 8 dereferenceable(32) %5) #22
  br label %common.resume

._crit_edge:                                      ; preds = %.lr.ph, %14
  ret void
}